; Function Attrs: nounwind uwtable
define ptr @Gia_ManDupOutputVec(ptr noundef %0, ptr noundef readonly captures(none) %1) local_unnamed_addr #1 {
  tail call void @Gia_ManFillValue(ptr noundef %0) #29
  %3 = getelementptr i8, ptr %0, i64 24
  %.val46 = load i32, ptr %3, align 8
  %4 = tail call ptr @Gia_ManStart(i32 noundef %.val46) #29
  %5 = load ptr, ptr %0, align 8
  %.not.i = icmp eq ptr %5, null
  br i1 %.not.i, label %Abc_UtilStrsav.exit, label %6

6:                                                ; preds = %2
  %7 = tail call i64 @strlen(ptr noundef nonnull readonly dereferenceable(1) %5) #30
  %8 = add i64 %7, 1
  %9 = tail call noalias ptr @malloc(i64 noundef %8) #27
  %10 = tail call ptr @strcpy(ptr noundef nonnull dereferenceable(1) %9, ptr noundef nonnull readonly dereferenceable(1) %5) #29
  br label %Abc_UtilStrsav.exit

Abc_UtilStrsav.exit:                              ; preds = %2, %6
  %11 = phi ptr [ %9, %6 ], [ null, %2 ]
  store ptr %11, ptr %4, align 8
  %12 = getelementptr inbounds nuw i8, ptr %0, i64 8
  %13 = load ptr, ptr %12, align 8
  %.not.i60 = icmp eq ptr %13, null
  br i1 %.not.i60, label %Abc_UtilStrsav.exit61, label %14

14:                                               ; preds = %Abc_UtilStrsav.exit
  %15 = tail call i64 @strlen(ptr noundef nonnull readonly dereferenceable(1) %13) #30
  %16 = add i64 %15, 1
  %17 = tail call noalias ptr @malloc(i64 noundef %16) #27
  %18 = tail call ptr @strcpy(ptr noundef nonnull dereferenceable(1) %17, ptr noundef nonnull readonly dereferenceable(1) %13) #29
  br label %Abc_UtilStrsav.exit61

Abc_UtilStrsav.exit61:                            ; preds = %Abc_UtilStrsav.exit, %14
  %19 = phi ptr [ %17, %14 ], [ null, %Abc_UtilStrsav.exit ]
  %20 = getelementptr inbounds nuw i8, ptr %4, i64 8
  store ptr %19, ptr %20, align 8
  %21 = getelementptr i8, ptr %0, i64 32
  %.val53 = load ptr, ptr %21, align 8
  %22 = getelementptr inbounds nuw i8, ptr %.val53, i64 8
  store i32 0, ptr %22, align 4
  %23 = getelementptr i8, ptr %0, i64 16
  %24 = getelementptr i8, ptr %0, i64 64
  %.val5463 = load i32, ptr %23, align 8
  %.val5564 = load ptr, ptr %24, align 8
  %25 = getelementptr i8, ptr %.val5564, i64 4
  %.val55.val65 = load i32, ptr %25, align 4
  %26 = icmp sgt i32 %.val55.val65, %.val5463
  br i1 %26, label %.lr.ph.preheader, label %.critedge

.lr.ph.preheader:                                 ; preds = %Abc_UtilStrsav.exit61
  %.val47108 = load ptr, ptr %21, align 8
  %.not109 = icmp eq ptr %.val47108, null
  br i1 %.not109, label %.critedge, label %.lr.ph113

.lr.ph:                                           ; preds = %.lr.ph113
  %.val47 = load ptr, ptr %21, align 8
  %.not = icmp eq ptr %.val47, null
  br i1 %.not, label %.critedge, label %.lr.ph113, !llvm.loop !24

.lr.ph113:                                        ; preds = %.lr.ph.preheader, %.lr.ph
  %.val47112 = phi ptr [ %.val47, %.lr.ph ], [ %.val47108, %.lr.ph.preheader ]
  %.val5567111 = phi ptr [ %.val55, %.lr.ph ], [ %.val5564, %.lr.ph.preheader ]
  %indvars.iv110 = phi i64 [ %indvars.iv.next, %.lr.ph ], [ 0, %.lr.ph.preheader ]
  %27 = getelementptr i8, ptr %.val5567111, i64 8
  %.val48.val = load ptr, ptr %27, align 8
  %28 = getelementptr inbounds nuw i32, ptr %.val48.val, i64 %indvars.iv110
  %29 = load i32, ptr %28, align 4
  %30 = sext i32 %29 to i64
  %31 = tail call fastcc i32 @Gia_ManAppendCi(ptr noundef nonnull %4)
  %32 = getelementptr inbounds %struct.Gia_Obj_t_, ptr %.val47112, i64 %30, i32 1
  store i32 %31, ptr %32, align 4
  %indvars.iv.next = add nuw nsw i64 %indvars.iv110, 1
  %.val54 = load i32, ptr %23, align 8
  %.val55 = load ptr, ptr %24, align 8
  %33 = getelementptr i8, ptr %.val55, i64 4
  %.val55.val = load i32, ptr %33, align 4
  %34 = sub nsw i32 %.val55.val, %.val54
  %35 = sext i32 %34 to i64
  %36 = icmp slt i64 %indvars.iv.next, %35
  br i1 %36, label %.lr.ph, label %.critedge, !llvm.loop !24

.critedge:                                        ; preds = %.lr.ph113, %.lr.ph, %.lr.ph.preheader, %Abc_UtilStrsav.exit61
  %.val5869 = phi i32 [ %.val5463, %Abc_UtilStrsav.exit61 ], [ %.val5463, %.lr.ph.preheader ], [ %.val54, %.lr.ph ], [ %.val54, %.lr.ph113 ]
  %37 = getelementptr i8, ptr %0, i64 72
  %.val5970 = load ptr, ptr %37, align 8
  %38 = getelementptr i8, ptr %.val5970, i64 4
  %.val59.val71 = load i32, ptr %38, align 4
  %39 = icmp sgt i32 %.val59.val71, %.val5869
  br i1 %39, label %.lr.ph74, label %.critedge2

.lr.ph74:                                         ; preds = %.critedge
  %40 = getelementptr i8, ptr %1, i64 8
  %.val51115 = load ptr, ptr %21, align 8
  %.not41117 = icmp eq ptr %.val51115, null
  br i1 %.not41117, label %.critedge2, label %.lr.ph121

.lr.ph121:                                        ; preds = %.lr.ph74
  %41 = getelementptr i8, ptr %.val5970, i64 8
  %.val52.val116 = load ptr, ptr %41, align 8
  %42 = load i32, ptr %.val52.val116, align 4
  %43 = sext i32 %42 to i64
  %44 = getelementptr inbounds %struct.Gia_Obj_t_, ptr %.val51115, i64 %43
  br label %51

45:                                               ; preds = %61
  %.val51 = load ptr, ptr %21, align 8
  %46 = getelementptr i8, ptr %.val59, i64 8
  %.val52.val = load ptr, ptr %46, align 8
  %47 = getelementptr inbounds nuw i32, ptr %.val52.val, i64 %indvars.iv.next85
  %48 = load i32, ptr %47, align 4
  %49 = sext i32 %48 to i64
  %50 = getelementptr inbounds %struct.Gia_Obj_t_, ptr %.val51, i64 %49
  %.not41 = icmp eq ptr %.val51, null
  br i1 %.not41, label %.critedge2, label %51, !llvm.loop !25

51:                                               ; preds = %.lr.ph121, %45
  %52 = phi ptr [ %44, %.lr.ph121 ], [ %50, %45 ]
  %indvars.iv84120 = phi i64 [ 0, %.lr.ph121 ], [ %indvars.iv.next85, %45 ]
  %.val5893119 = phi i32 [ %.val5869, %.lr.ph121 ], [ %.val58, %45 ]
  %.val5995118 = phi ptr [ %.val5970, %.lr.ph121 ], [ %.val59, %45 ]
  %.val45 = load ptr, ptr %40, align 8
  %53 = getelementptr inbounds nuw i32, ptr %.val45, i64 %indvars.iv84120
  %54 = load i32, ptr %53, align 4
  %.not44 = icmp eq i32 %54, 0
  br i1 %.not44, label %61, label %55

55:                                               ; preds = %51
  %56 = load i64, ptr %52, align 4
  %57 = and i64 %56, 536870911
  %58 = sub nsw i64 0, %57
  %59 = getelementptr inbounds %struct.Gia_Obj_t_, ptr %52, i64 %58
  %60 = tail call i32 @Gia_ManDupOrderDfs_rec(ptr noundef nonnull %4, ptr noundef nonnull %0, ptr noundef nonnull %59)
  %.val58.pre = load i32, ptr %23, align 8
  %.val59.pre = load ptr, ptr %37, align 8
  br label %61

61:                                               ; preds = %51, %55
  %.val59 = phi ptr [ %.val5995118, %51 ], [ %.val59.pre, %55 ]
  %.val58 = phi i32 [ %.val5893119, %51 ], [ %.val58.pre, %55 ]
  %indvars.iv.next85 = add nuw nsw i64 %indvars.iv84120, 1
  %62 = getelementptr i8, ptr %.val59, i64 4
  %.val59.val = load i32, ptr %62, align 4
  %63 = sub nsw i32 %.val59.val, %.val58
  %64 = sext i32 %63 to i64
  %65 = icmp slt i64 %indvars.iv.next85, %64
  br i1 %65, label %45, label %.critedge2, !llvm.loop !25

.critedge2:                                       ; preds = %61, %45, %.lr.ph74, %.critedge
  %.val57.val78 = phi i32 [ %.val59.val71, %.critedge ], [ %.val59.val71, %.lr.ph74 ], [ %.val59.val, %45 ], [ %.val59.val, %61 ]
  %.val5777 = phi ptr [ %.val5970, %.critedge ], [ %.val5970, %.lr.ph74 ], [ %.val59, %45 ], [ %.val59, %61 ]
  %.val5676 = phi i32 [ %.val5869, %.critedge ], [ %.val5869, %.lr.ph74 ], [ %.val58, %45 ], [ %.val58, %61 ]
  %66 = icmp sgt i32 %.val57.val78, %.val5676
  br i1 %66, label %.lr.ph81, label %.critedge4

.lr.ph81:                                         ; preds = %.critedge2
  %67 = getelementptr i8, ptr %1, i64 8
  br label %68

68:                                               ; preds = %.lr.ph81, %89
  %.val57104 = phi ptr [ %.val5777, %.lr.ph81 ], [ %.val57, %89 ]
  %.val56102 = phi i32 [ %.val5676, %.lr.ph81 ], [ %.val56, %89 ]
  %indvars.iv87 = phi i64 [ 0, %.lr.ph81 ], [ %indvars.iv.next88, %89 ]
  %.val49 = load ptr, ptr %21, align 8
  %69 = getelementptr i8, ptr %.val57104, i64 8
  %.val50.val = load ptr, ptr %69, align 8
  %70 = getelementptr inbounds nuw i32, ptr %.val50.val, i64 %indvars.iv87
  %71 = load i32, ptr %70, align 4
  %72 = sext i32 %71 to i64
  %73 = getelementptr inbounds %struct.Gia_Obj_t_, ptr %.val49, i64 %72
  %.not42 = icmp eq ptr %.val49, null
  br i1 %.not42, label %.critedge4, label %74

74:                                               ; preds = %68
  %.val = load ptr, ptr %67, align 8
  %75 = getelementptr inbounds nuw i32, ptr %.val, i64 %indvars.iv87
  %76 = load i32, ptr %75, align 4
  %.not43 = icmp eq i32 %76, 0
  br i1 %.not43, label %89, label %77

77:                                               ; preds = %74
  %78 = load i64, ptr %73, align 4
  %79 = and i64 %78, 536870911
  %80 = sub nsw i64 0, %79
  %81 = getelementptr inbounds %struct.Gia_Obj_t_, ptr %73, i64 %80, i32 1
  %82 = load i32, ptr %81, align 4
  %83 = trunc i64 %78 to i32
  %84 = lshr i32 %83, 29
  %85 = and i32 %84, 1
  %86 = xor i32 %85, %82
  %87 = tail call fastcc i32 @Gia_ManAppendCo(ptr noundef nonnull %4, i32 noundef %86)
  %88 = getelementptr inbounds nuw i8, ptr %73, i64 8
  store i32 %87, ptr %88, align 4
  %.val56.pre = load i32, ptr %23, align 8
  %.val57.pre = load ptr, ptr %37, align 8
  br label %89

89:                                               ; preds = %74, %77
  %.val57 = phi ptr [ %.val57104, %74 ], [ %.val57.pre, %77 ]
  %.val56 = phi i32 [ %.val56102, %74 ], [ %.val56.pre, %77 ]
  %indvars.iv.next88 = add nuw nsw i64 %indvars.iv87, 1
  %90 = getelementptr i8, ptr %.val57, i64 4
  %.val57.val = load i32, ptr %90, align 4
  %91 = sub nsw i32 %.val57.val, %.val56
  %92 = sext i32 %91 to i64
  %93 = icmp slt i64 %indvars.iv.next88, %92
  br i1 %93, label %68, label %.critedge4, !llvm.loop !26

.critedge4:                                       ; preds = %68, %89, %.critedge2
  ret ptr %4
}